; Function Attrs: mustprogress nounwind uwtable
define internal void @_ZN4absl12lts_2023080222internal_any_invocable22LocalManagerNontrivialIN12_GLOBAL__N_118PingClosureWrapperEEEvNS1_14FunctionToCallEPNS1_15TypeErasedStateES7_(i1 noundef zeroext %operation, ptr nocapture noundef %from, ptr nocapture noundef writeonly %to) #6 personality ptr @__gxx_personality_v0 {
entry:
  %ref.tmp.i = alloca %"class.grpc_core::DebugLocation", align 1
  %agg.tmp.i = alloca %"class.absl::lts_20230802::Status", align 8
  br i1 %operation, label %sw.bb1, label %sw.bb

sw.bb:                                            ; preds = %entry
  %0 = load ptr, ptr %from, align 8
  store ptr null, ptr %from, align 8
  store ptr %0, ptr %to, align 8
  br label %sw.bb1

sw.bb1:                                           ; preds = %entry, %sw.bb
  %call.val = load ptr, ptr %from, align 8
  call void @llvm.lifetime.start.p0(i64 1, ptr nonnull %ref.tmp.i)
  call void @llvm.lifetime.start.p0(i64 8, ptr nonnull %agg.tmp.i)
  %cmp.not.i = icmp eq ptr %call.val, null
  br i1 %cmp.not.i, label %_ZN12_GLOBAL__N_118PingClosureWrapperD2Ev.exit, label %invoke.cont3.i

invoke.cont3.i:                                   ; preds = %sw.bb1
  store i64 4, ptr %agg.tmp.i, align 8, !alias.scope !397
  invoke void @_ZN9grpc_core7ExecCtx3RunERKNS_13DebugLocationEP12grpc_closureN4absl12lts_202308026StatusE(ptr noundef nonnull align 1 dereferenceable(1) %ref.tmp.i, ptr noundef nonnull %call.val, ptr noundef nonnull %agg.tmp.i)
          to label %invoke.cont4.i unwind label %terminate.lpad.i

invoke.cont4.i:                                   ; preds = %invoke.cont3.i
  %1 = load i64, ptr %agg.tmp.i, align 8
  %and.i.i.i.i = and i64 %1, 1
  %cmp.i.i.i.i = icmp eq i64 %and.i.i.i.i, 0
  br i1 %cmp.i.i.i.i, label %_ZN12_GLOBAL__N_118PingClosureWrapperD2Ev.exit, label %if.then.i.i.i

if.then.i.i.i:                                    ; preds = %invoke.cont4.i
  invoke void @_ZN4absl12lts_202308026Status15UnrefNonInlinedEm(i64 noundef %1)
          to label %_ZN12_GLOBAL__N_118PingClosureWrapperD2Ev.exit unwind label %terminate.lpad.i.i

terminate.lpad.i.i:                               ; preds = %if.then.i.i.i
  %2 = landingpad { ptr, i32 }
          catch ptr null
  %3 = extractvalue { ptr, i32 } %2, 0
  call void @__clang_call_terminate(ptr %3) #33
  unreachable

terminate.lpad.i:                                 ; preds = %invoke.cont3.i
  %4 = landingpad { ptr, i32 }
          catch ptr null
  %5 = extractvalue { ptr, i32 } %4, 0
  call void @__clang_call_terminate(ptr %5) #33
  unreachable

_ZN12_GLOBAL__N_118PingClosureWrapperD2Ev.exit:   ; preds = %sw.bb1, %invoke.cont4.i, %if.then.i.i.i
  call void @llvm.lifetime.end.p0(i64 1, ptr nonnull %ref.tmp.i)
  call void @llvm.lifetime.end.p0(i64 8, ptr nonnull %agg.tmp.i)
  ret void
}